; Function Attrs: mustprogress nounwind uwtable
define hidden void @_ZNK4llvh2cl6parserIbE15printOptionDiffERKNS0_6OptionEbNS0_11OptionValueIbEEm(ptr nocapture nonnull readnone align 8 %this, ptr nocapture noundef nonnull readonly align 8 dereferenceable(145) %O, i1 noundef zeroext %V, ptr nocapture noundef readonly %D, i64 noundef %GlobalWidth) local_unnamed_addr #0 align 2 {
entry:
  %Str = alloca %"class.std::__cxx11::basic_string", align 8
  %SS = alloca %"class.llvh::raw_string_ostream", align 8
  tail call void @_ZNK4llvh2cl17basic_parser_impl15printOptionNameERKNS0_6OptionEm(ptr nonnull align 8 poison, ptr noundef nonnull align 8 dereferenceable(145) %O, i64 noundef %GlobalWidth)
  call void @_ZNSt7__cxx1112basic_stringIcSt11char_traitsIcESaIcEEC1Ev(ptr noundef nonnull align 8 dereferenceable(32) %Str) #27
  %BufferMode.i.i = getelementptr inbounds i8, ptr %SS, i64 32
  store i32 1, ptr %BufferMode.i.i, align 8
  %OutBufStart.i.i = getelementptr inbounds i8, ptr %SS, i64 8
  call void @llvm.memset.p0.i64(ptr noundef nonnull align 8 dereferenceable(24) %OutBufStart.i.i, i8 0, i64 24, i1 false)
  store ptr getelementptr inbounds ({ [13 x ptr] }, ptr @_ZTVN4llvh18raw_string_ostreamE, i64 0, i32 0, i64 2), ptr %SS, align 8
  %OS.i = getelementptr inbounds i8, ptr %SS, i64 40
  store ptr %Str, ptr %OS.i, align 8
  %conv.i = zext i1 %V to i64
  %call.i = call noundef nonnull align 8 dereferenceable(36) ptr @_ZN4llvh11raw_ostreamlsEl(ptr noundef nonnull align 8 dereferenceable(36) %SS, i64 noundef %conv.i) #27
  call void @_ZN4llvh18raw_string_ostreamD1Ev(ptr noundef nonnull align 8 dereferenceable(48) %SS) #27
  %call2 = call noundef nonnull align 8 dereferenceable(36) ptr @_ZN4llvh4outsEv() #27
  %OutBufEnd.i5.i = getelementptr inbounds i8, ptr %call2, i64 16
  %0 = load ptr, ptr %OutBufEnd.i5.i, align 8
  %OutBufCur.i6.i = getelementptr inbounds i8, ptr %call2, i64 24
  %1 = load ptr, ptr %OutBufCur.i6.i, align 8
  %sub.ptr.lhs.cast.i7.i = ptrtoint ptr %0 to i64
  %sub.ptr.rhs.cast.i8.i = ptrtoint ptr %1 to i64
  %sub.ptr.sub.i9.i = sub i64 %sub.ptr.lhs.cast.i7.i, %sub.ptr.rhs.cast.i8.i
  %cmp.i.i = icmp ult i64 %sub.ptr.sub.i9.i, 2
  br i1 %cmp.i.i, label %if.then.i.i, label %if.then4.i.i

if.then.i.i:                                      ; preds = %entry
  %call3.i.i = call noundef nonnull align 8 dereferenceable(36) ptr @_ZN4llvh11raw_ostream5writeEPKcm(ptr noundef nonnull align 8 dereferenceable(36) %call2, ptr noundef nonnull @.str.28, i64 noundef 2) #27
  br label %_ZN4llvh11raw_ostreamlsEPKc.exit

if.then4.i.i:                                     ; preds = %entry
  store i16 8253, ptr %1, align 1
  %2 = load ptr, ptr %OutBufCur.i6.i, align 8
  %add.ptr.i.i = getelementptr inbounds i8, ptr %2, i64 2
  store ptr %add.ptr.i.i, ptr %OutBufCur.i6.i, align 8
  br label %_ZN4llvh11raw_ostreamlsEPKc.exit

_ZN4llvh11raw_ostreamlsEPKc.exit:                 ; preds = %if.then.i.i, %if.then4.i.i
  %phi.call.i = phi ptr [ %call3.i.i, %if.then.i.i ], [ %call2, %if.then4.i.i ]
  %call.i1 = call noundef ptr @_ZNKSt7__cxx1112basic_stringIcSt11char_traitsIcESaIcEE4dataEv(ptr noundef nonnull align 8 dereferenceable(32) %Str) #27
  %call2.i = call noundef i64 @_ZNKSt7__cxx1112basic_stringIcSt11char_traitsIcESaIcEE6lengthEv(ptr noundef nonnull align 8 dereferenceable(32) %Str) #27
  %call3.i = call noundef nonnull align 8 dereferenceable(36) ptr @_ZN4llvh11raw_ostream5writeEPKcm(ptr noundef nonnull align 8 dereferenceable(36) %phi.call.i, ptr noundef %call.i1, i64 noundef %call2.i) #27
  %call5 = call noundef i64 @_ZNKSt7__cxx1112basic_stringIcSt11char_traitsIcESaIcEE4sizeEv(ptr noundef nonnull align 8 dereferenceable(32) %Str) #27
  %cmp = icmp ult i64 %call5, 8
  br i1 %cmp, label %cond.true, label %cond.end

cond.true:                                        ; preds = %_ZN4llvh11raw_ostreamlsEPKc.exit
  %call6 = call noundef i64 @_ZNKSt7__cxx1112basic_stringIcSt11char_traitsIcESaIcEE4sizeEv(ptr noundef nonnull align 8 dereferenceable(32) %Str) #27
  %3 = trunc i64 %call6 to i32
  %4 = sub i32 8, %3
  br label %cond.end

cond.end:                                         ; preds = %_ZN4llvh11raw_ostreamlsEPKc.exit, %cond.true
  %cond = phi i32 [ %4, %cond.true ], [ 0, %_ZN4llvh11raw_ostreamlsEPKc.exit ]
  %call7 = call noundef nonnull align 8 dereferenceable(36) ptr @_ZN4llvh4outsEv() #27
  %call9 = call noundef nonnull align 8 dereferenceable(36) ptr @_ZN4llvh11raw_ostream6indentEj(ptr noundef nonnull align 8 dereferenceable(36) %call7, i32 noundef %cond) #27
  %OutBufEnd.i5.i3 = getelementptr inbounds i8, ptr %call9, i64 16
  %5 = load ptr, ptr %OutBufEnd.i5.i3, align 8
  %OutBufCur.i6.i4 = getelementptr inbounds i8, ptr %call9, i64 24
  %6 = load ptr, ptr %OutBufCur.i6.i4, align 8
  %sub.ptr.lhs.cast.i7.i5 = ptrtoint ptr %5 to i64
  %sub.ptr.rhs.cast.i8.i6 = ptrtoint ptr %6 to i64
  %sub.ptr.sub.i9.i7 = sub i64 %sub.ptr.lhs.cast.i7.i5, %sub.ptr.rhs.cast.i8.i6
  %cmp.i.i8 = icmp ult i64 %sub.ptr.sub.i9.i7, 11
  br i1 %cmp.i.i8, label %if.then.i.i14, label %if.then4.i.i11

if.then.i.i14:                                    ; preds = %cond.end
  %call3.i.i15 = call noundef nonnull align 8 dereferenceable(36) ptr @_ZN4llvh11raw_ostream5writeEPKcm(ptr noundef nonnull align 8 dereferenceable(36) %call9, ptr noundef nonnull @.str.29, i64 noundef 11) #27
  br label %_ZN4llvh11raw_ostreamlsEPKc.exit16

if.then4.i.i11:                                   ; preds = %cond.end
  call void @llvm.memcpy.p0.p0.i64(ptr noundef nonnull align 1 dereferenceable(11) %6, ptr noundef nonnull align 1 dereferenceable(11) @.str.29, i64 11, i1 false)
  %7 = load ptr, ptr %OutBufCur.i6.i4, align 8
  %add.ptr.i.i12 = getelementptr inbounds i8, ptr %7, i64 11
  store ptr %add.ptr.i.i12, ptr %OutBufCur.i6.i4, align 8
  br label %_ZN4llvh11raw_ostreamlsEPKc.exit16

_ZN4llvh11raw_ostreamlsEPKc.exit16:               ; preds = %if.then.i.i14, %if.then4.i.i11
  %Valid.i = getelementptr inbounds i8, ptr %D, i64 9
  %8 = load i8, ptr %Valid.i, align 1
  %9 = and i8 %8, 1
  %tobool.i.not = icmp eq i8 %9, 0
  %call17 = call noundef nonnull align 8 dereferenceable(36) ptr @_ZN4llvh4outsEv() #27
  br i1 %tobool.i.not, label %if.else, label %if.then

if.then:                                          ; preds = %_ZN4llvh11raw_ostreamlsEPKc.exit16
  %Value.i = getelementptr inbounds i8, ptr %D, i64 8
  %10 = load i8, ptr %Value.i, align 1
  %11 = and i8 %10, 1
  %conv.i17 = zext nneg i8 %11 to i64
  %call.i18 = call noundef nonnull align 8 dereferenceable(36) ptr @_ZN4llvh11raw_ostreamlsEl(ptr noundef nonnull align 8 dereferenceable(36) %call17, i64 noundef %conv.i17) #27
  br label %if.end

if.else:                                          ; preds = %_ZN4llvh11raw_ostreamlsEPKc.exit16
  %OutBufEnd.i5.i20 = getelementptr inbounds i8, ptr %call17, i64 16
  %12 = load ptr, ptr %OutBufEnd.i5.i20, align 8
  %OutBufCur.i6.i21 = getelementptr inbounds i8, ptr %call17, i64 24
  %13 = load ptr, ptr %OutBufCur.i6.i21, align 8
  %sub.ptr.lhs.cast.i7.i22 = ptrtoint ptr %12 to i64
  %sub.ptr.rhs.cast.i8.i23 = ptrtoint ptr %13 to i64
  %sub.ptr.sub.i9.i24 = sub i64 %sub.ptr.lhs.cast.i7.i22, %sub.ptr.rhs.cast.i8.i23
  %cmp.i.i25 = icmp ult i64 %sub.ptr.sub.i9.i24, 12
  br i1 %cmp.i.i25, label %if.then.i.i31, label %if.then4.i.i28

if.then.i.i31:                                    ; preds = %if.else
  %call3.i.i32 = call noundef nonnull align 8 dereferenceable(36) ptr @_ZN4llvh11raw_ostream5writeEPKcm(ptr noundef nonnull align 8 dereferenceable(36) %call17, ptr noundef nonnull @.str.32, i64 noundef 12) #27
  br label %if.end

if.then4.i.i28:                                   ; preds = %if.else
  call void @llvm.memcpy.p0.p0.i64(ptr noundef nonnull align 1 dereferenceable(12) %13, ptr noundef nonnull align 1 dereferenceable(12) @.str.32, i64 12, i1 false)
  %14 = load ptr, ptr %OutBufCur.i6.i21, align 8
  %add.ptr.i.i29 = getelementptr inbounds i8, ptr %14, i64 12
  store ptr %add.ptr.i.i29, ptr %OutBufCur.i6.i21, align 8
  br label %if.end

if.end:                                           ; preds = %if.then4.i.i28, %if.then.i.i31, %if.then
  %call19 = call noundef nonnull align 8 dereferenceable(36) ptr @_ZN4llvh4outsEv() #27
  %OutBufEnd.i5.i35 = getelementptr inbounds i8, ptr %call19, i64 16
  %15 = load ptr, ptr %OutBufEnd.i5.i35, align 8
  %OutBufCur.i6.i36 = getelementptr inbounds i8, ptr %call19, i64 24
  %16 = load ptr, ptr %OutBufCur.i6.i36, align 8
  %sub.ptr.lhs.cast.i7.i37 = ptrtoint ptr %15 to i64
  %sub.ptr.rhs.cast.i8.i38 = ptrtoint ptr %16 to i64
  %sub.ptr.sub.i9.i39 = sub i64 %sub.ptr.lhs.cast.i7.i37, %sub.ptr.rhs.cast.i8.i38
  %cmp.i.i40 = icmp ult i64 %sub.ptr.sub.i9.i39, 2
  br i1 %cmp.i.i40, label %if.then.i.i46, label %if.then4.i.i43

if.then.i.i46:                                    ; preds = %if.end
  %call3.i.i47 = call noundef nonnull align 8 dereferenceable(36) ptr @_ZN4llvh11raw_ostream5writeEPKcm(ptr noundef nonnull align 8 dereferenceable(36) %call19, ptr noundef nonnull @.str.30, i64 noundef 2) #27
  br label %_ZN4llvh11raw_ostreamlsEPKc.exit48

if.then4.i.i43:                                   ; preds = %if.end
  store i16 2601, ptr %16, align 1
  %17 = load ptr, ptr %OutBufCur.i6.i36, align 8
  %add.ptr.i.i44 = getelementptr inbounds i8, ptr %17, i64 2
  store ptr %add.ptr.i.i44, ptr %OutBufCur.i6.i36, align 8
  br label %_ZN4llvh11raw_ostreamlsEPKc.exit48

_ZN4llvh11raw_ostreamlsEPKc.exit48:               ; preds = %if.then.i.i46, %if.then4.i.i43
  call void @_ZNSt7__cxx1112basic_stringIcSt11char_traitsIcESaIcEED1Ev(ptr noundef nonnull align 8 dereferenceable(32) %Str) #27
  ret void
}